(dp0
S'show_imports'
p1
I0
sS'prj_name'
p2
S''
p3
sS'docformat'
p4
S'epytext'
p5
sS'inheritance'
p6
S'grouped'
p7
sS'help'
p8
NsS'modules'
p9
(S'/home/cristian/git/microblogRepo/microblog/app/modelo/fase.py'
p10
S'/home/cristian/git/microblogRepo/microblog/app/modelo/item.py'
p11
S'/home/cristian/git/microblogRepo/microblog/app/modelo/permiso.py'
p12
S'/home/cristian/git/microblogRepo/microblog/app/modelo/proyecto.py'
p13
S'/home/cristian/git/microblogRepo/microblog/app/modelo/rol.py'
p14
S'/home/cristian/git/microblogRepo/microblog/app/modelo/usuario.py'
p15
tp16
sS'private'
p17
I1
sS'prj_url'
p18
NsS'introspect_or_parse'
p19
S'both'
p20
sS'frames'
p21
I1
sS'css'
p22
S'default'
p23
sS'target'
p24
S'html'
p25
s.